; Function Attrs: uwtable
define noundef i32 @_ZThn16_NK19FilterTexturePlugin16getPreConditionsEPK7QAction(ptr noundef %0, ptr noundef %1) unnamed_addr #14 align 2 {
  %3 = load ptr, ptr %0, align 8
  %4 = getelementptr inbounds i8, ptr %3, i64 144
  %5 = load ptr, ptr %4, align 8
  %6 = tail call noundef i32 %5(ptr noundef nonnull align 8 dereferenceable(64) %0, ptr noundef %1)
  %7 = icmp ult i32 %6, 9
  br i1 %7, label %switch.lookup, label %_ZNK19FilterTexturePlugin16getPreConditionsEPK7QAction.exit

switch.lookup:                                    ; preds = %2
  %8 = zext nneg i32 %6 to i64
  %switch.gep = getelementptr inbounds [9 x i32], ptr @switch.table._ZThn16_NK19FilterTexturePlugin16getPreConditionsEPK7QAction, i64 0, i64 %8
  %switch.load = load i32, ptr %switch.gep, align 4
  br label %_ZNK19FilterTexturePlugin16getPreConditionsEPK7QAction.exit

_ZNK19FilterTexturePlugin16getPreConditionsEPK7QAction.exit: ; preds = %2, %switch.lookup
  %.0.i = phi i32 [ %switch.load, %switch.lookup ], [ 0, %2 ]
  ret i32 %.0.i
}